SF:/Users/jgalaber/ws/nve-rust-cli/crates/cli/src/lib.rs
FN:107,_RINvCs6GYL1TQkRf9_7nve_cli10cmd_remoteNtCseOi3vX16Wlp_8lib_test10FakeHttpOkEBC_
FN:34,_RINvCs6GYL1TQkRf9_7nve_cli10cmd_removeNtCseOi3vX16Wlp_8lib_test6FakeFsNtBC_12FakePlatformEBC_
FN:7,_RINvCs6GYL1TQkRf9_7nve_cli11cmd_installNtCseOi3vX16Wlp_8lib_test10FakeHttpOkNtBD_6FakeFsNtBD_12FakePlatformNtBD_13FakeArchiveOkEBD_
FN:7,_RINvCs6GYL1TQkRf9_7nve_cli11cmd_installNtCseOi3vX16Wlp_8lib_test11FakeHttpErrNtBD_6FakeFsNtBD_12FakePlatformNtBD_13FakeArchiveOkEBD_
FN:82,_RINvCs6GYL1TQkRf9_7nve_cli7cmd_useNtCseOi3vX16Wlp_8lib_test6FakeFsNtBy_12FakePlatformEBy_
FN:66,_RINvCs6GYL1TQkRf9_7nve_cli8cmd_listNtCseOi3vX16Wlp_8lib_test6FakeFsEBz_
FN:107,_RNCINvCs6GYL1TQkRf9_7nve_cli10cmd_remoteNtCseOi3vX16Wlp_8lib_test10FakeHttpOkE0BE_
FN:43,_RNCINvCs6GYL1TQkRf9_7nve_cli10cmd_removeNtCseOi3vX16Wlp_8lib_test6FakeFsNtBE_12FakePlatformE0BE_
FN:20,_RNCINvCs6GYL1TQkRf9_7nve_cli11cmd_installNtCseOi3vX16Wlp_8lib_test10FakeHttpOkNtBF_6FakeFsNtBF_12FakePlatformNtBF_13FakeArchiveOkE0BF_
FN:20,_RNCINvCs6GYL1TQkRf9_7nve_cli11cmd_installNtCseOi3vX16Wlp_8lib_test11FakeHttpErrNtBF_6FakeFsNtBF_12FakePlatformNtBF_13FakeArchiveOkE0BF_
FN:91,_RNCINvCs6GYL1TQkRf9_7nve_cli7cmd_useNtCseOi3vX16Wlp_8lib_test6FakeFsNtBA_12FakePlatformE0BA_
FN:69,_RNCINvCs6GYL1TQkRf9_7nve_cli8cmd_listNtCseOi3vX16Wlp_8lib_test6FakeFsE0BB_
FN:47,_RNCNCINvCs6GYL1TQkRf9_7nve_cli10cmd_removeNtCseOi3vX16Wlp_8lib_test6FakeFsNtBG_12FakePlatformE00BG_
FN:99,_RNCNCINvCs6GYL1TQkRf9_7nve_cli7cmd_useNtCseOi3vX16Wlp_8lib_test6FakeFsNtBC_12FakePlatformE00BC_
FN:116,_RNCNvCs6GYL1TQkRf9_7nve_cli10parse_spec0B3_
FN:125,_RNCNvCs6GYL1TQkRf9_7nve_cli17resolve_installed0B3_
FN:128,_RNCNvCs6GYL1TQkRf9_7nve_cli17resolve_installeds0_0B3_
FN:132,_RNCNvCs6GYL1TQkRf9_7nve_cli17resolve_installeds1_0B3_
FN:126,_RNCNvCs6GYL1TQkRf9_7nve_cli17resolve_installeds_0B3_
FN:115,_RNvCs6GYL1TQkRf9_7nve_cli10parse_spec
FN:119,_RNvCs6GYL1TQkRf9_7nve_cli17resolve_installed
FN:107,_RINvCs6GYL1TQkRf9_7nve_cli10cmd_remotepEB2_
FN:34,_RINvCs6GYL1TQkRf9_7nve_cli10cmd_removeppEB2_
FN:7,_RINvCs6GYL1TQkRf9_7nve_cli11cmd_installppppEB2_
FN:82,_RINvCs6GYL1TQkRf9_7nve_cli7cmd_useppEB2_
FN:66,_RINvCs6GYL1TQkRf9_7nve_cli8cmd_listpEB2_
FN:107,_RNCINvCs6GYL1TQkRf9_7nve_cli10cmd_remotepE0B4_
FN:43,_RNCINvCs6GYL1TQkRf9_7nve_cli10cmd_removeppE0B4_
FN:20,_RNCINvCs6GYL1TQkRf9_7nve_cli11cmd_installppppE0B4_
FN:91,_RNCINvCs6GYL1TQkRf9_7nve_cli7cmd_useppE0B4_
FN:69,_RNCINvCs6GYL1TQkRf9_7nve_cli8cmd_listpE0B4_
FN:47,_RNCNCINvCs6GYL1TQkRf9_7nve_cli10cmd_removeppE00B6_
FN:99,_RNCNCINvCs6GYL1TQkRf9_7nve_cli7cmd_useppE00B6_
FN:107,_RINvCs6GYL1TQkRf9_7nve_cli10cmd_remoteNtNtCsdoXv3OBzBMS_9nve_infra11http_client11ReqwestHttpECsb32HfRwuVU2_7nve_cli
FN:34,_RINvCs6GYL1TQkRf9_7nve_cli10cmd_removeNtNtCsdoXv3OBzBMS_9nve_infra6fs_std5StdFsNtNtNtBE_8platform4unix12UnixPlatformECsb32HfRwuVU2_7nve_cli
FN:7,_RINvCs6GYL1TQkRf9_7nve_cli11cmd_installNtNtCsdoXv3OBzBMS_9nve_infra11http_client11ReqwestHttpNtNtBF_6fs_std5StdFsNtNtNtBF_8platform4unix12UnixPlatformNtNtNtBF_7archive6tar_xz12TarXzArchiveECsb32HfRwuVU2_7nve_cli
FN:82,_RINvCs6GYL1TQkRf9_7nve_cli7cmd_useNtNtCsdoXv3OBzBMS_9nve_infra6fs_std5StdFsNtNtNtBA_8platform4unix12UnixPlatformECsb32HfRwuVU2_7nve_cli
FN:66,_RINvCs6GYL1TQkRf9_7nve_cli8cmd_listNtNtCsdoXv3OBzBMS_9nve_infra6fs_std5StdFsECsb32HfRwuVU2_7nve_cli
FN:107,_RNCINvCs6GYL1TQkRf9_7nve_cli10cmd_remoteNtNtCsdoXv3OBzBMS_9nve_infra11http_client11ReqwestHttpE0Csb32HfRwuVU2_7nve_cli
FN:43,_RNCINvCs6GYL1TQkRf9_7nve_cli10cmd_removeNtNtCsdoXv3OBzBMS_9nve_infra6fs_std5StdFsNtNtNtBG_8platform4unix12UnixPlatformE0Csb32HfRwuVU2_7nve_cli
FN:20,_RNCINvCs6GYL1TQkRf9_7nve_cli11cmd_installNtNtCsdoXv3OBzBMS_9nve_infra11http_client11ReqwestHttpNtNtBH_6fs_std5StdFsNtNtNtBH_8platform4unix12UnixPlatformNtNtNtBH_7archive6tar_xz12TarXzArchiveE0Csb32HfRwuVU2_7nve_cli
FN:91,_RNCINvCs6GYL1TQkRf9_7nve_cli7cmd_useNtNtCsdoXv3OBzBMS_9nve_infra6fs_std5StdFsNtNtNtBC_8platform4unix12UnixPlatformE0Csb32HfRwuVU2_7nve_cli
FN:69,_RNCINvCs6GYL1TQkRf9_7nve_cli8cmd_listNtNtCsdoXv3OBzBMS_9nve_infra6fs_std5StdFsE0Csb32HfRwuVU2_7nve_cli
FN:47,_RNCNCINvCs6GYL1TQkRf9_7nve_cli10cmd_removeNtNtCsdoXv3OBzBMS_9nve_infra6fs_std5StdFsNtNtNtBI_8platform4unix12UnixPlatformE00Csb32HfRwuVU2_7nve_cli
FN:99,_RNCNCINvCs6GYL1TQkRf9_7nve_cli7cmd_useNtNtCsdoXv3OBzBMS_9nve_infra6fs_std5StdFsNtNtNtBE_8platform4unix12UnixPlatformE00Csb32HfRwuVU2_7nve_cli
FN:107,_RINvCs2Zku8iiFKiQ_7nve_cli10cmd_remotepEB2_
FN:34,_RINvCs2Zku8iiFKiQ_7nve_cli10cmd_removeppEB2_
FN:7,_RINvCs2Zku8iiFKiQ_7nve_cli11cmd_installppppEB2_
FN:82,_RINvCs2Zku8iiFKiQ_7nve_cli7cmd_useppEB2_
FN:66,_RINvCs2Zku8iiFKiQ_7nve_cli8cmd_listpEB2_
FN:107,_RNCINvCs2Zku8iiFKiQ_7nve_cli10cmd_remotepE0B4_
FN:43,_RNCINvCs2Zku8iiFKiQ_7nve_cli10cmd_removeppE0B4_
FN:20,_RNCINvCs2Zku8iiFKiQ_7nve_cli11cmd_installppppE0B4_
FN:91,_RNCINvCs2Zku8iiFKiQ_7nve_cli7cmd_useppE0B4_
FN:69,_RNCINvCs2Zku8iiFKiQ_7nve_cli8cmd_listpE0B4_
FN:47,_RNCNCINvCs2Zku8iiFKiQ_7nve_cli10cmd_removeppE00B6_
FN:99,_RNCNCINvCs2Zku8iiFKiQ_7nve_cli7cmd_useppE00B6_
FN:116,_RNCNvCs2Zku8iiFKiQ_7nve_cli10parse_spec0B3_
FN:125,_RNCNvCs2Zku8iiFKiQ_7nve_cli17resolve_installed0B3_
FN:128,_RNCNvCs2Zku8iiFKiQ_7nve_cli17resolve_installeds0_0B3_
FN:132,_RNCNvCs2Zku8iiFKiQ_7nve_cli17resolve_installeds1_0B3_
FN:126,_RNCNvCs2Zku8iiFKiQ_7nve_cli17resolve_installeds_0B3_
FN:115,_RNvCs2Zku8iiFKiQ_7nve_cli10parse_spec
FN:119,_RNvCs2Zku8iiFKiQ_7nve_cli17resolve_installed
FNDA:1,_RINvCs6GYL1TQkRf9_7nve_cli10cmd_remoteNtCseOi3vX16Wlp_8lib_test10FakeHttpOkEBC_
FNDA:3,_RINvCs6GYL1TQkRf9_7nve_cli10cmd_removeNtCseOi3vX16Wlp_8lib_test6FakeFsNtBC_12FakePlatformEBC_
FNDA:1,_RINvCs6GYL1TQkRf9_7nve_cli11cmd_installNtCseOi3vX16Wlp_8lib_test10FakeHttpOkNtBD_6FakeFsNtBD_12FakePlatformNtBD_13FakeArchiveOkEBD_
FNDA:1,_RINvCs6GYL1TQkRf9_7nve_cli11cmd_installNtCseOi3vX16Wlp_8lib_test11FakeHttpErrNtBD_6FakeFsNtBD_12FakePlatformNtBD_13FakeArchiveOkEBD_
FNDA:2,_RINvCs6GYL1TQkRf9_7nve_cli7cmd_useNtCseOi3vX16Wlp_8lib_test6FakeFsNtBy_12FakePlatformEBy_
FNDA:2,_RINvCs6GYL1TQkRf9_7nve_cli8cmd_listNtCseOi3vX16Wlp_8lib_test6FakeFsEBz_
FNDA:1,_RNCINvCs6GYL1TQkRf9_7nve_cli10cmd_remoteNtCseOi3vX16Wlp_8lib_test10FakeHttpOkE0BE_
FNDA:3,_RNCINvCs6GYL1TQkRf9_7nve_cli10cmd_removeNtCseOi3vX16Wlp_8lib_test6FakeFsNtBE_12FakePlatformE0BE_
FNDA:1,_RNCINvCs6GYL1TQkRf9_7nve_cli11cmd_installNtCseOi3vX16Wlp_8lib_test10FakeHttpOkNtBF_6FakeFsNtBF_12FakePlatformNtBF_13FakeArchiveOkE0BF_
FNDA:1,_RNCINvCs6GYL1TQkRf9_7nve_cli11cmd_installNtCseOi3vX16Wlp_8lib_test11FakeHttpErrNtBF_6FakeFsNtBF_12FakePlatformNtBF_13FakeArchiveOkE0BF_
FNDA:2,_RNCINvCs6GYL1TQkRf9_7nve_cli7cmd_useNtCseOi3vX16Wlp_8lib_test6FakeFsNtBA_12FakePlatformE0BA_
FNDA:2,_RNCINvCs6GYL1TQkRf9_7nve_cli8cmd_listNtCseOi3vX16Wlp_8lib_test6FakeFsE0BB_
FNDA:1,_RNCNCINvCs6GYL1TQkRf9_7nve_cli10cmd_removeNtCseOi3vX16Wlp_8lib_test6FakeFsNtBG_12FakePlatformE00BG_
FNDA:1,_RNCNCINvCs6GYL1TQkRf9_7nve_cli7cmd_useNtCseOi3vX16Wlp_8lib_test6FakeFsNtBC_12FakePlatformE00BC_
FNDA:2,_RNCNvCs6GYL1TQkRf9_7nve_cli10parse_spec0B3_
FNDA:8,_RNCNvCs6GYL1TQkRf9_7nve_cli17resolve_installed0B3_
FNDA:5,_RNCNvCs6GYL1TQkRf9_7nve_cli17resolve_installeds0_0B3_
FNDA:8,_RNCNvCs6GYL1TQkRf9_7nve_cli17resolve_installeds1_0B3_
FNDA:4,_RNCNvCs6GYL1TQkRf9_7nve_cli17resolve_installeds_0B3_
FNDA:13,_RNvCs6GYL1TQkRf9_7nve_cli10parse_spec
FNDA:11,_RNvCs6GYL1TQkRf9_7nve_cli17resolve_installed
FNDA:0,_RINvCs6GYL1TQkRf9_7nve_cli10cmd_remotepEB2_
FNDA:0,_RINvCs6GYL1TQkRf9_7nve_cli10cmd_removeppEB2_
FNDA:0,_RINvCs6GYL1TQkRf9_7nve_cli11cmd_installppppEB2_
FNDA:0,_RINvCs6GYL1TQkRf9_7nve_cli7cmd_useppEB2_
FNDA:0,_RINvCs6GYL1TQkRf9_7nve_cli8cmd_listpEB2_
FNDA:0,_RNCINvCs6GYL1TQkRf9_7nve_cli10cmd_remotepE0B4_
FNDA:0,_RNCINvCs6GYL1TQkRf9_7nve_cli10cmd_removeppE0B4_
FNDA:0,_RNCINvCs6GYL1TQkRf9_7nve_cli11cmd_installppppE0B4_
FNDA:0,_RNCINvCs6GYL1TQkRf9_7nve_cli7cmd_useppE0B4_
FNDA:0,_RNCINvCs6GYL1TQkRf9_7nve_cli8cmd_listpE0B4_
FNDA:0,_RNCNCINvCs6GYL1TQkRf9_7nve_cli10cmd_removeppE00B6_
FNDA:0,_RNCNCINvCs6GYL1TQkRf9_7nve_cli7cmd_useppE00B6_
FNDA:0,_RINvCs6GYL1TQkRf9_7nve_cli10cmd_remoteNtNtCsdoXv3OBzBMS_9nve_infra11http_client11ReqwestHttpECsb32HfRwuVU2_7nve_cli
FNDA:1,_RINvCs6GYL1TQkRf9_7nve_cli10cmd_removeNtNtCsdoXv3OBzBMS_9nve_infra6fs_std5StdFsNtNtNtBE_8platform4unix12UnixPlatformECsb32HfRwuVU2_7nve_cli
FNDA:0,_RINvCs6GYL1TQkRf9_7nve_cli11cmd_installNtNtCsdoXv3OBzBMS_9nve_infra11http_client11ReqwestHttpNtNtBF_6fs_std5StdFsNtNtNtBF_8platform4unix12UnixPlatformNtNtNtBF_7archive6tar_xz12TarXzArchiveECsb32HfRwuVU2_7nve_cli
FNDA:1,_RINvCs6GYL1TQkRf9_7nve_cli7cmd_useNtNtCsdoXv3OBzBMS_9nve_infra6fs_std5StdFsNtNtNtBA_8platform4unix12UnixPlatformECsb32HfRwuVU2_7nve_cli
FNDA:2,_RINvCs6GYL1TQkRf9_7nve_cli8cmd_listNtNtCsdoXv3OBzBMS_9nve_infra6fs_std5StdFsECsb32HfRwuVU2_7nve_cli
FNDA:0,_RNCINvCs6GYL1TQkRf9_7nve_cli10cmd_remoteNtNtCsdoXv3OBzBMS_9nve_infra11http_client11ReqwestHttpE0Csb32HfRwuVU2_7nve_cli
FNDA:1,_RNCINvCs6GYL1TQkRf9_7nve_cli10cmd_removeNtNtCsdoXv3OBzBMS_9nve_infra6fs_std5StdFsNtNtNtBG_8platform4unix12UnixPlatformE0Csb32HfRwuVU2_7nve_cli
FNDA:0,_RNCINvCs6GYL1TQkRf9_7nve_cli11cmd_installNtNtCsdoXv3OBzBMS_9nve_infra11http_client11ReqwestHttpNtNtBH_6fs_std5StdFsNtNtNtBH_8platform4unix12UnixPlatformNtNtNtBH_7archive6tar_xz12TarXzArchiveE0Csb32HfRwuVU2_7nve_cli
FNDA:1,_RNCINvCs6GYL1TQkRf9_7nve_cli7cmd_useNtNtCsdoXv3OBzBMS_9nve_infra6fs_std5StdFsNtNtNtBC_8platform4unix12UnixPlatformE0Csb32HfRwuVU2_7nve_cli
FNDA:2,_RNCINvCs6GYL1TQkRf9_7nve_cli8cmd_listNtNtCsdoXv3OBzBMS_9nve_infra6fs_std5StdFsE0Csb32HfRwuVU2_7nve_cli
FNDA:0,_RNCNCINvCs6GYL1TQkRf9_7nve_cli10cmd_removeNtNtCsdoXv3OBzBMS_9nve_infra6fs_std5StdFsNtNtNtBI_8platform4unix12UnixPlatformE00Csb32HfRwuVU2_7nve_cli
FNDA:0,_RNCNCINvCs6GYL1TQkRf9_7nve_cli7cmd_useNtNtCsdoXv3OBzBMS_9nve_infra6fs_std5StdFsNtNtNtBE_8platform4unix12UnixPlatformE00Csb32HfRwuVU2_7nve_cli
FNDA:0,_RINvCs2Zku8iiFKiQ_7nve_cli10cmd_remotepEB2_
FNDA:0,_RINvCs2Zku8iiFKiQ_7nve_cli10cmd_removeppEB2_
FNDA:0,_RINvCs2Zku8iiFKiQ_7nve_cli11cmd_installppppEB2_
FNDA:0,_RINvCs2Zku8iiFKiQ_7nve_cli7cmd_useppEB2_
FNDA:0,_RINvCs2Zku8iiFKiQ_7nve_cli8cmd_listpEB2_
FNDA:0,_RNCINvCs2Zku8iiFKiQ_7nve_cli10cmd_remotepE0B4_
FNDA:0,_RNCINvCs2Zku8iiFKiQ_7nve_cli10cmd_removeppE0B4_
FNDA:0,_RNCINvCs2Zku8iiFKiQ_7nve_cli11cmd_installppppE0B4_
FNDA:0,_RNCINvCs2Zku8iiFKiQ_7nve_cli7cmd_useppE0B4_
FNDA:0,_RNCINvCs2Zku8iiFKiQ_7nve_cli8cmd_listpE0B4_
FNDA:0,_RNCNCINvCs2Zku8iiFKiQ_7nve_cli10cmd_removeppE00B6_
FNDA:0,_RNCNCINvCs2Zku8iiFKiQ_7nve_cli7cmd_useppE00B6_
FNDA:0,_RNCNvCs2Zku8iiFKiQ_7nve_cli10parse_spec0B3_
FNDA:0,_RNCNvCs2Zku8iiFKiQ_7nve_cli17resolve_installed0B3_
FNDA:0,_RNCNvCs2Zku8iiFKiQ_7nve_cli17resolve_installeds0_0B3_
FNDA:0,_RNCNvCs2Zku8iiFKiQ_7nve_cli17resolve_installeds1_0B3_
FNDA:0,_RNCNvCs2Zku8iiFKiQ_7nve_cli17resolve_installeds_0B3_
FNDA:0,_RNvCs2Zku8iiFKiQ_7nve_cli10parse_spec
FNDA:0,_RNvCs2Zku8iiFKiQ_7nve_cli17resolve_installed
FNF:19
FNH:19
DA:7,2
DA:8,2
DA:9,2
DA:10,2
DA:11,2
DA:12,2
DA:13,2
DA:14,2
DA:15,2
DA:16,2
DA:17,2
DA:18,2
DA:19,2
DA:20,2
DA:21,2
DA:22,2
DA:23,2
DA:24,2
DA:25,2
DA:26,2
DA:27,2
DA:28,2
DA:29,2
DA:30,1
DA:31,1
DA:32,2
DA:34,4
DA:35,4
DA:36,4
DA:37,4
DA:38,4
DA:39,4
DA:40,4
DA:41,4
DA:42,4
DA:43,4
DA:44,4
DA:45,4
DA:46,4
DA:47,4
DA:48,3
DA:50,3
DA:51,3
DA:52,3
DA:53,3
DA:55,2
DA:56,2
DA:57,2
DA:58,2
DA:59,0
DA:60,1
DA:61,3
DA:62,3
DA:63,3
DA:64,4
DA:66,4
DA:67,4
DA:68,4
DA:69,4
DA:70,4
DA:71,2
DA:73,2
DA:75,4
DA:76,8
DA:77,4
DA:78,4
DA:79,4
DA:80,4
DA:82,3
DA:83,3
DA:84,3
DA:85,3
DA:86,3
DA:87,3
DA:88,3
DA:89,3
DA:90,3
DA:91,3
DA:92,3
DA:93,3
DA:94,2
DA:96,1
DA:98,3
DA:99,3
DA:100,2
DA:101,2
DA:102,2
DA:103,2
DA:104,2
DA:105,3
DA:107,1
DA:108,1
DA:109,1
DA:110,1
DA:111,1
DA:112,1
DA:113,1
DA:115,13
DA:116,13
DA:117,13
DA:119,11
DA:121,11
DA:122,35
DA:123,24
DA:124,24
DA:125,15
DA:126,13
DA:127,24
DA:128,13
DA:129,11
DA:130,0
DA:132,11
DA:133,11
BRF:0
BRH:0
LF:121
LH:119
end_of_record
SF:/Users/jgalaber/ws/nve-rust-cli/crates/cli/src/main.rs
FN:51,_RNvCsb32HfRwuVU2_7nve_cli4main
FN:51,_RNCNvCsb32HfRwuVU2_7nve_cli4main0B3_
FN:51,_RNCNvCsjLONKjEDoTF_7nve_cli4main0B3_
FN:51,_RNvCsjLONKjEDoTF_7nve_cli4main
FNDA:5,_RNvCsb32HfRwuVU2_7nve_cli4main
FNDA:5,_RNCNvCsb32HfRwuVU2_7nve_cli4main0B3_
FNDA:0,_RNCNvCsjLONKjEDoTF_7nve_cli4main0B3_
FNDA:0,_RNvCsjLONKjEDoTF_7nve_cli4main
FNF:2
FNH:2
DA:51,5
DA:52,5
DA:54,5
DA:55,5
DA:56,5
DA:57,5
DA:59,5
DA:60,5
DA:61,5
DA:62,5
DA:64,5
DA:65,5
DA:66,5
DA:67,5
DA:68,5
DA:69,5
DA:70,5
DA:71,5
DA:72,5
DA:73,5
DA:74,5
DA:75,5
BRF:0
BRH:0
LF:31
LH:30
end_of_record
SF:/Users/jgalaber/ws/nve-rust-cli/crates/core/src/domain/version.rs
FN:12,_RNvMNtNtCsaYBQcqFXcu4_8nve_core6domain7versionNtB2_13ParsedVersion5parse
FN:50,_RNvNtNtCsaYBQcqFXcu4_8nve_core6domain7version14matches_semver
FN:19,_RNCNvMNtNtCsaYBQcqFXcu4_8nve_core6domain7versionNtB4_13ParsedVersion5parse0B8_
FN:33,_RNCNvMNtNtCsaYBQcqFXcu4_8nve_core6domain7versionNtB4_13ParsedVersion5parses0_0B8_
FN:24,_RNCNvMNtNtCsaYBQcqFXcu4_8nve_core6domain7versionNtB4_13ParsedVersion5parses_0B8_
FN:19,_RNCNvMNtNtCsh2jtGRHkI8o_8nve_core6domain7versionNtB4_13ParsedVersion5parse0B8_
FN:33,_RNCNvMNtNtCsh2jtGRHkI8o_8nve_core6domain7versionNtB4_13ParsedVersion5parses0_0B8_
FN:24,_RNCNvMNtNtCsh2jtGRHkI8o_8nve_core6domain7versionNtB4_13ParsedVersion5parses_0B8_
FN:12,_RNvMNtNtCsh2jtGRHkI8o_8nve_core6domain7versionNtB2_13ParsedVersion5parse
FN:50,_RNvNtNtCsh2jtGRHkI8o_8nve_core6domain7version14matches_semver
FNDA:38,_RNvMNtNtCsaYBQcqFXcu4_8nve_core6domain7versionNtB2_13ParsedVersion5parse
FNDA:30,_RNvNtNtCsaYBQcqFXcu4_8nve_core6domain7version14matches_semver
FNDA:2,_RNCNvMNtNtCsaYBQcqFXcu4_8nve_core6domain7versionNtB4_13ParsedVersion5parse0B8_
FNDA:2,_RNCNvMNtNtCsaYBQcqFXcu4_8nve_core6domain7versionNtB4_13ParsedVersion5parses0_0B8_
FNDA:2,_RNCNvMNtNtCsaYBQcqFXcu4_8nve_core6domain7versionNtB4_13ParsedVersion5parses_0B8_
FNDA:0,_RNCNvMNtNtCsh2jtGRHkI8o_8nve_core6domain7versionNtB4_13ParsedVersion5parse0B8_
FNDA:0,_RNCNvMNtNtCsh2jtGRHkI8o_8nve_core6domain7versionNtB4_13ParsedVersion5parses0_0B8_
FNDA:0,_RNCNvMNtNtCsh2jtGRHkI8o_8nve_core6domain7versionNtB4_13ParsedVersion5parses_0B8_
FNDA:0,_RNvMNtNtCsh2jtGRHkI8o_8nve_core6domain7versionNtB2_13ParsedVersion5parse
FNDA:0,_RNvNtNtCsh2jtGRHkI8o_8nve_core6domain7version14matches_semver
FNF:5
FNH:5
DA:12,38
DA:13,38
DA:14,38
DA:15,2
DA:16,36
DA:17,36
DA:18,36
DA:19,36
DA:20,34
DA:22,25
DA:23,25
DA:24,25
DA:27,9
DA:29,32
DA:31,20
DA:32,20
DA:33,20
DA:36,12
DA:38,30
DA:39,2
DA:40,28
DA:41,28
DA:42,28
DA:43,28
DA:44,28
DA:45,28
DA:46,28
DA:47,38
DA:50,30
DA:51,30
DA:52,25
DA:53,4
DA:54,21
DA:55,21
DA:56,16
DA:57,5
DA:58,11
DA:59,5
DA:60,16
DA:61,9
DA:62,1
DA:63,8
DA:64,7
DA:65,15
DA:66,5
DA:67,5
DA:68,30
BRF:0
BRH:0
LF:50
LH:50
end_of_record
SF:/Users/jgalaber/ws/nve-rust-cli/crates/core/src/error.rs
FN:83,_RINvMNtCsaYBQcqFXcu4_8nve_core5errorNtB3_8NveError11extract_errReECs3cUIQkBJwgk_10error_test
FN:87,_RINvMNtCsaYBQcqFXcu4_8nve_core5errorNtB3_8NveError14invalid_layoutReECs3cUIQkBJwgk_10error_test
FN:79,_RINvMNtCsaYBQcqFXcu4_8nve_core5errorNtB3_8NveError20artifact_unavailableReECs3cUIQkBJwgk_10error_test
FN:91,_RINvMNtCsaYBQcqFXcu4_8nve_core5errorNtB3_8NveError25archive_name_build_failedReB1d_ECs3cUIQkBJwgk_10error_test
FN:83,_RINvMNtCsh2jtGRHkI8o_8nve_core5errorNtB3_8NveError11extract_errpEB5_
FN:87,_RINvMNtCsh2jtGRHkI8o_8nve_core5errorNtB3_8NveError14invalid_layoutpEB5_
FN:79,_RINvMNtCsh2jtGRHkI8o_8nve_core5errorNtB3_8NveError20artifact_unavailablepEB5_
FN:91,_RINvMNtCsh2jtGRHkI8o_8nve_core5errorNtB3_8NveError25archive_name_build_failedppEB5_
FNDA:1,_RINvMNtCsaYBQcqFXcu4_8nve_core5errorNtB3_8NveError11extract_errReECs3cUIQkBJwgk_10error_test
FNDA:1,_RINvMNtCsaYBQcqFXcu4_8nve_core5errorNtB3_8NveError14invalid_layoutReECs3cUIQkBJwgk_10error_test
FNDA:1,_RINvMNtCsaYBQcqFXcu4_8nve_core5errorNtB3_8NveError20artifact_unavailableReECs3cUIQkBJwgk_10error_test
FNDA:1,_RINvMNtCsaYBQcqFXcu4_8nve_core5errorNtB3_8NveError25archive_name_build_failedReB1d_ECs3cUIQkBJwgk_10error_test
FNDA:0,_RINvMNtCsh2jtGRHkI8o_8nve_core5errorNtB3_8NveError11extract_errpEB5_
FNDA:0,_RINvMNtCsh2jtGRHkI8o_8nve_core5errorNtB3_8NveError14invalid_layoutpEB5_
FNDA:0,_RINvMNtCsh2jtGRHkI8o_8nve_core5errorNtB3_8NveError20artifact_unavailablepEB5_
FNDA:0,_RINvMNtCsh2jtGRHkI8o_8nve_core5errorNtB3_8NveError25archive_name_build_failedppEB5_
FNF:4
FNH:4
DA:79,1
DA:80,1
DA:81,1
DA:83,1
DA:84,1
DA:85,1
DA:87,1
DA:88,1
DA:89,1
DA:91,1
DA:92,1
DA:93,1
DA:94,1
DA:95,1
DA:96,1
BRF:0
BRH:0
LF:15
LH:15
end_of_record
SF:/Users/jgalaber/ws/nve-rust-cli/crates/core/src/services/installer.rs
FN:26,_RNCNvMNtNtCsaYBQcqFXcu4_8nve_core8services9installerINtB4_14InstallServiceNtCsjM8Q6BkuJGm_22installer_service_test10FakeHttpOkNtB1c_6FakeFsNtB1c_12FakePlatformNtB1c_13FakeArchiveOkE7install0B1c_
FN:26,_RNCNvMNtNtCsaYBQcqFXcu4_8nve_core8services9installerINtB4_14InstallServiceNtCsjM8Q6BkuJGm_22installer_service_test10FakeHttpOkNtB1c_6FakeFsNtB1c_12FakePlatformNtB1c_14FakeArchiveErrE7install0B1c_
FN:26,_RNCNvMNtNtCsaYBQcqFXcu4_8nve_core8services9installerINtB4_14InstallServiceNtCsjM8Q6BkuJGm_22installer_service_test11FakeHttpErrNtB1c_6FakeFsNtB1c_12FakePlatformNtB1c_13FakeArchiveOkE7install0B1c_
FN:26,_RNvMNtNtCsaYBQcqFXcu4_8nve_core8services9installerINtB2_14InstallServiceNtCsjM8Q6BkuJGm_22installer_service_test10FakeHttpOkNtB1a_6FakeFsNtB1a_12FakePlatformNtB1a_13FakeArchiveOkE7installB1a_
FN:26,_RNvMNtNtCsaYBQcqFXcu4_8nve_core8services9installerINtB2_14InstallServiceNtCsjM8Q6BkuJGm_22installer_service_test10FakeHttpOkNtB1a_6FakeFsNtB1a_12FakePlatformNtB1a_14FakeArchiveErrE7installB1a_
FN:26,_RNvMNtNtCsaYBQcqFXcu4_8nve_core8services9installerINtB2_14InstallServiceNtCsjM8Q6BkuJGm_22installer_service_test11FakeHttpErrNtB1a_6FakeFsNtB1a_12FakePlatformNtB1a_13FakeArchiveOkE7installB1a_
FN:26,_RNCNvMNtNtCsaYBQcqFXcu4_8nve_core8services9installerINtB4_14InstallServiceNtCseOi3vX16Wlp_8lib_test10FakeHttpOkNtB1c_6FakeFsNtB1c_12FakePlatformNtB1c_13FakeArchiveOkE7install0B1c_
FN:26,_RNCNvMNtNtCsaYBQcqFXcu4_8nve_core8services9installerINtB4_14InstallServiceNtCseOi3vX16Wlp_8lib_test11FakeHttpErrNtB1c_6FakeFsNtB1c_12FakePlatformNtB1c_13FakeArchiveOkE7install0B1c_
FN:26,_RNvMNtNtCsaYBQcqFXcu4_8nve_core8services9installerINtB2_14InstallServiceNtCseOi3vX16Wlp_8lib_test10FakeHttpOkNtB1a_6FakeFsNtB1a_12FakePlatformNtB1a_13FakeArchiveOkE7installB1a_
FN:26,_RNvMNtNtCsaYBQcqFXcu4_8nve_core8services9installerINtB2_14InstallServiceNtCseOi3vX16Wlp_8lib_test11FakeHttpErrNtB1a_6FakeFsNtB1a_12FakePlatformNtB1a_13FakeArchiveOkE7installB1a_
FN:26,_RNCNvMNtNtCsaYBQcqFXcu4_8nve_core8services9installerINtB4_14InstallServiceNtNtCsdoXv3OBzBMS_9nve_infra11http_client11ReqwestHttpNtNtB1e_6fs_std5StdFsNtNtNtB1e_8platform4unix12UnixPlatformNtNtNtB1e_7archive6tar_xz12TarXzArchiveE7install0Csb32HfRwuVU2_7nve_cli
FN:26,_RNvMNtNtCsaYBQcqFXcu4_8nve_core8services9installerINtB2_14InstallServiceNtNtCsdoXv3OBzBMS_9nve_infra11http_client11ReqwestHttpNtNtB1c_6fs_std5StdFsNtNtNtB1c_8platform4unix12UnixPlatformNtNtNtB1c_7archive6tar_xz12TarXzArchiveE7installCsb32HfRwuVU2_7nve_cli
FN:26,_RNCNvMNtNtCsh2jtGRHkI8o_8nve_core8services9installerINtB4_14InstallServiceppppE7install0B8_
FN:26,_RNvMNtNtCsh2jtGRHkI8o_8nve_core8services9installerINtB2_14InstallServiceppppE7installB6_
FNDA:2,_RNCNvMNtNtCsaYBQcqFXcu4_8nve_core8services9installerINtB4_14InstallServiceNtCsjM8Q6BkuJGm_22installer_service_test10FakeHttpOkNtB1c_6FakeFsNtB1c_12FakePlatformNtB1c_13FakeArchiveOkE7install0B1c_
FNDA:1,_RNCNvMNtNtCsaYBQcqFXcu4_8nve_core8services9installerINtB4_14InstallServiceNtCsjM8Q6BkuJGm_22installer_service_test10FakeHttpOkNtB1c_6FakeFsNtB1c_12FakePlatformNtB1c_14FakeArchiveErrE7install0B1c_
FNDA:1,_RNCNvMNtNtCsaYBQcqFXcu4_8nve_core8services9installerINtB4_14InstallServiceNtCsjM8Q6BkuJGm_22installer_service_test11FakeHttpErrNtB1c_6FakeFsNtB1c_12FakePlatformNtB1c_13FakeArchiveOkE7install0B1c_
FNDA:2,_RNvMNtNtCsaYBQcqFXcu4_8nve_core8services9installerINtB2_14InstallServiceNtCsjM8Q6BkuJGm_22installer_service_test10FakeHttpOkNtB1a_6FakeFsNtB1a_12FakePlatformNtB1a_13FakeArchiveOkE7installB1a_
FNDA:1,_RNvMNtNtCsaYBQcqFXcu4_8nve_core8services9installerINtB2_14InstallServiceNtCsjM8Q6BkuJGm_22installer_service_test10FakeHttpOkNtB1a_6FakeFsNtB1a_12FakePlatformNtB1a_14FakeArchiveErrE7installB1a_
FNDA:1,_RNvMNtNtCsaYBQcqFXcu4_8nve_core8services9installerINtB2_14InstallServiceNtCsjM8Q6BkuJGm_22installer_service_test11FakeHttpErrNtB1a_6FakeFsNtB1a_12FakePlatformNtB1a_13FakeArchiveOkE7installB1a_
FNDA:1,_RNCNvMNtNtCsaYBQcqFXcu4_8nve_core8services9installerINtB4_14InstallServiceNtCseOi3vX16Wlp_8lib_test10FakeHttpOkNtB1c_6FakeFsNtB1c_12FakePlatformNtB1c_13FakeArchiveOkE7install0B1c_
FNDA:1,_RNCNvMNtNtCsaYBQcqFXcu4_8nve_core8services9installerINtB4_14InstallServiceNtCseOi3vX16Wlp_8lib_test11FakeHttpErrNtB1c_6FakeFsNtB1c_12FakePlatformNtB1c_13FakeArchiveOkE7install0B1c_
FNDA:1,_RNvMNtNtCsaYBQcqFXcu4_8nve_core8services9installerINtB2_14InstallServiceNtCseOi3vX16Wlp_8lib_test10FakeHttpOkNtB1a_6FakeFsNtB1a_12FakePlatformNtB1a_13FakeArchiveOkE7installB1a_
FNDA:1,_RNvMNtNtCsaYBQcqFXcu4_8nve_core8services9installerINtB2_14InstallServiceNtCseOi3vX16Wlp_8lib_test11FakeHttpErrNtB1a_6FakeFsNtB1a_12FakePlatformNtB1a_13FakeArchiveOkE7installB1a_
FNDA:0,_RNCNvMNtNtCsaYBQcqFXcu4_8nve_core8services9installerINtB4_14InstallServiceNtNtCsdoXv3OBzBMS_9nve_infra11http_client11ReqwestHttpNtNtB1e_6fs_std5StdFsNtNtNtB1e_8platform4unix12UnixPlatformNtNtNtB1e_7archive6tar_xz12TarXzArchiveE7install0Csb32HfRwuVU2_7nve_cli
FNDA:0,_RNvMNtNtCsaYBQcqFXcu4_8nve_core8services9installerINtB2_14InstallServiceNtNtCsdoXv3OBzBMS_9nve_infra11http_client11ReqwestHttpNtNtB1c_6fs_std5StdFsNtNtNtB1c_8platform4unix12UnixPlatformNtNtNtB1c_7archive6tar_xz12TarXzArchiveE7installCsb32HfRwuVU2_7nve_cli
FNDA:0,_RNCNvMNtNtCsh2jtGRHkI8o_8nve_core8services9installerINtB4_14InstallServiceppppE7install0B8_
FNDA:0,_RNvMNtNtCsh2jtGRHkI8o_8nve_core8services9installerINtB2_14InstallServiceppppE7installB6_
FNF:2
FNH:2
DA:26,6
DA:27,6
DA:28,4
DA:29,4
DA:30,1
DA:31,3
DA:33,3
DA:34,3
DA:35,3
DA:38,3
DA:39,3
DA:40,3
DA:41,2
DA:42,6
BRF:0
BRH:0
LF:15
LH:15
end_of_record
SF:/Users/jgalaber/ws/nve-rust-cli/crates/core/src/services/resolver.rs
FN:17,_RNCNCNvMNtNtCsaYBQcqFXcu4_8nve_core8services8resolverINtB6_14ResolveServiceNtCsjM8Q6BkuJGm_22installer_service_test10FakeHttpOkE7resolve00B1d_
FN:19,_RNCNCNvMNtNtCsaYBQcqFXcu4_8nve_core8services8resolverINtB6_14ResolveServiceNtCsjM8Q6BkuJGm_22installer_service_test10FakeHttpOkE7resolve0s0_0B1d_
FN:18,_RNCNCNvMNtNtCsaYBQcqFXcu4_8nve_core8services8resolverINtB6_14ResolveServiceNtCsjM8Q6BkuJGm_22installer_service_test10FakeHttpOkE7resolve0s_0B1d_
FN:17,_RNCNCNvMNtNtCsaYBQcqFXcu4_8nve_core8services8resolverINtB6_14ResolveServiceNtCsjM8Q6BkuJGm_22installer_service_test11FakeHttpErrE7resolve00B1d_
FN:19,_RNCNCNvMNtNtCsaYBQcqFXcu4_8nve_core8services8resolverINtB6_14ResolveServiceNtCsjM8Q6BkuJGm_22installer_service_test11FakeHttpErrE7resolve0s0_0B1d_
FN:18,_RNCNCNvMNtNtCsaYBQcqFXcu4_8nve_core8services8resolverINtB6_14ResolveServiceNtCsjM8Q6BkuJGm_22installer_service_test11FakeHttpErrE7resolve0s_0B1d_
FN:12,_RNCNvMNtNtCsaYBQcqFXcu4_8nve_core8services8resolverINtB4_14ResolveServiceNtCsjM8Q6BkuJGm_22installer_service_test10FakeHttpOkE7resolve0B1b_
FN:12,_RNCNvMNtNtCsaYBQcqFXcu4_8nve_core8services8resolverINtB4_14ResolveServiceNtCsjM8Q6BkuJGm_22installer_service_test11FakeHttpErrE7resolve0B1b_
FN:12,_RNvMNtNtCsaYBQcqFXcu4_8nve_core8services8resolverINtB2_14ResolveServiceNtCsjM8Q6BkuJGm_22installer_service_test10FakeHttpOkE7resolveB19_
FN:12,_RNvMNtNtCsaYBQcqFXcu4_8nve_core8services8resolverINtB2_14ResolveServiceNtCsjM8Q6BkuJGm_22installer_service_test11FakeHttpErrE7resolveB19_
FN:17,_RNCNCNvMNtNtCsaYBQcqFXcu4_8nve_core8services8resolverINtB6_14ResolveServiceNtCseOi3vX16Wlp_8lib_test10FakeHttpOkE7resolve00B1d_
FN:19,_RNCNCNvMNtNtCsaYBQcqFXcu4_8nve_core8services8resolverINtB6_14ResolveServiceNtCseOi3vX16Wlp_8lib_test10FakeHttpOkE7resolve0s0_0B1d_
FN:18,_RNCNCNvMNtNtCsaYBQcqFXcu4_8nve_core8services8resolverINtB6_14ResolveServiceNtCseOi3vX16Wlp_8lib_test10FakeHttpOkE7resolve0s_0B1d_
FN:17,_RNCNCNvMNtNtCsaYBQcqFXcu4_8nve_core8services8resolverINtB6_14ResolveServiceNtCseOi3vX16Wlp_8lib_test11FakeHttpErrE7resolve00B1d_
FN:19,_RNCNCNvMNtNtCsaYBQcqFXcu4_8nve_core8services8resolverINtB6_14ResolveServiceNtCseOi3vX16Wlp_8lib_test11FakeHttpErrE7resolve0s0_0B1d_
FN:18,_RNCNCNvMNtNtCsaYBQcqFXcu4_8nve_core8services8resolverINtB6_14ResolveServiceNtCseOi3vX16Wlp_8lib_test11FakeHttpErrE7resolve0s_0B1d_
FN:12,_RNCNvMNtNtCsaYBQcqFXcu4_8nve_core8services8resolverINtB4_14ResolveServiceNtCseOi3vX16Wlp_8lib_test10FakeHttpOkE7resolve0B1b_
FN:12,_RNCNvMNtNtCsaYBQcqFXcu4_8nve_core8services8resolverINtB4_14ResolveServiceNtCseOi3vX16Wlp_8lib_test11FakeHttpErrE7resolve0B1b_
FN:12,_RNvMNtNtCsaYBQcqFXcu4_8nve_core8services8resolverINtB2_14ResolveServiceNtCseOi3vX16Wlp_8lib_test10FakeHttpOkE7resolveB19_
FN:12,_RNvMNtNtCsaYBQcqFXcu4_8nve_core8services8resolverINtB2_14ResolveServiceNtCseOi3vX16Wlp_8lib_test11FakeHttpErrE7resolveB19_
FN:17,_RNCNCNvMNtNtCsaYBQcqFXcu4_8nve_core8services8resolverINtB6_14ResolveServiceNtNtCsdoXv3OBzBMS_9nve_infra11http_client11ReqwestHttpE7resolve00Csb32HfRwuVU2_7nve_cli
FN:19,_RNCNCNvMNtNtCsaYBQcqFXcu4_8nve_core8services8resolverINtB6_14ResolveServiceNtNtCsdoXv3OBzBMS_9nve_infra11http_client11ReqwestHttpE7resolve0s0_0Csb32HfRwuVU2_7nve_cli
FN:18,_RNCNCNvMNtNtCsaYBQcqFXcu4_8nve_core8services8resolverINtB6_14ResolveServiceNtNtCsdoXv3OBzBMS_9nve_infra11http_client11ReqwestHttpE7resolve0s_0Csb32HfRwuVU2_7nve_cli
FN:12,_RNCNvMNtNtCsaYBQcqFXcu4_8nve_core8services8resolverINtB4_14ResolveServiceNtNtCsdoXv3OBzBMS_9nve_infra11http_client11ReqwestHttpE7resolve0Csb32HfRwuVU2_7nve_cli
FN:12,_RNvMNtNtCsaYBQcqFXcu4_8nve_core8services8resolverINtB2_14ResolveServiceNtNtCsdoXv3OBzBMS_9nve_infra11http_client11ReqwestHttpE7resolveCsb32HfRwuVU2_7nve_cli
FN:17,_RNCNCNvMNtNtCsh2jtGRHkI8o_8nve_core8services8resolverINtB6_14ResolveServicepE7resolve00Ba_
FN:19,_RNCNCNvMNtNtCsh2jtGRHkI8o_8nve_core8services8resolverINtB6_14ResolveServicepE7resolve0s0_0Ba_
FN:18,_RNCNCNvMNtNtCsh2jtGRHkI8o_8nve_core8services8resolverINtB6_14ResolveServicepE7resolve0s_0Ba_
FN:12,_RNCNvMNtNtCsh2jtGRHkI8o_8nve_core8services8resolverINtB4_14ResolveServicepE7resolve0B8_
FN:12,_RNvMNtNtCsh2jtGRHkI8o_8nve_core8services8resolverINtB2_14ResolveServicepE7resolveB6_
FN:17,_RNCNCNvMNtNtCsaYBQcqFXcu4_8nve_core8services8resolverINtB6_14ResolveServiceNtCskYBRmLZdGY1_13resolver_test8FakeHttpE7resolve00B1d_
FN:19,_RNCNCNvMNtNtCsaYBQcqFXcu4_8nve_core8services8resolverINtB6_14ResolveServiceNtCskYBRmLZdGY1_13resolver_test8FakeHttpE7resolve0s0_0B1d_
FN:18,_RNCNCNvMNtNtCsaYBQcqFXcu4_8nve_core8services8resolverINtB6_14ResolveServiceNtCskYBRmLZdGY1_13resolver_test8FakeHttpE7resolve0s_0B1d_
FN:12,_RNCNvMNtNtCsaYBQcqFXcu4_8nve_core8services8resolverINtB4_14ResolveServiceNtCskYBRmLZdGY1_13resolver_test8FakeHttpE7resolve0B1b_
FN:12,_RNvMNtNtCsaYBQcqFXcu4_8nve_core8services8resolverINtB2_14ResolveServiceNtCskYBRmLZdGY1_13resolver_test8FakeHttpE7resolveB19_
FNDA:6,_RNCNCNvMNtNtCsaYBQcqFXcu4_8nve_core8services8resolverINtB6_14ResolveServiceNtCsjM8Q6BkuJGm_22installer_service_test10FakeHttpOkE7resolve00B1d_
FNDA:0,_RNCNCNvMNtNtCsaYBQcqFXcu4_8nve_core8services8resolverINtB6_14ResolveServiceNtCsjM8Q6BkuJGm_22installer_service_test10FakeHttpOkE7resolve0s0_0B1d_
FNDA:6,_RNCNCNvMNtNtCsaYBQcqFXcu4_8nve_core8services8resolverINtB6_14ResolveServiceNtCsjM8Q6BkuJGm_22installer_service_test10FakeHttpOkE7resolve0s_0B1d_
FNDA:0,_RNCNCNvMNtNtCsaYBQcqFXcu4_8nve_core8services8resolverINtB6_14ResolveServiceNtCsjM8Q6BkuJGm_22installer_service_test11FakeHttpErrE7resolve00B1d_
FNDA:0,_RNCNCNvMNtNtCsaYBQcqFXcu4_8nve_core8services8resolverINtB6_14ResolveServiceNtCsjM8Q6BkuJGm_22installer_service_test11FakeHttpErrE7resolve0s0_0B1d_
FNDA:0,_RNCNCNvMNtNtCsaYBQcqFXcu4_8nve_core8services8resolverINtB6_14ResolveServiceNtCsjM8Q6BkuJGm_22installer_service_test11FakeHttpErrE7resolve0s_0B1d_
FNDA:3,_RNCNvMNtNtCsaYBQcqFXcu4_8nve_core8services8resolverINtB4_14ResolveServiceNtCsjM8Q6BkuJGm_22installer_service_test10FakeHttpOkE7resolve0B1b_
FNDA:1,_RNCNvMNtNtCsaYBQcqFXcu4_8nve_core8services8resolverINtB4_14ResolveServiceNtCsjM8Q6BkuJGm_22installer_service_test11FakeHttpErrE7resolve0B1b_
FNDA:3,_RNvMNtNtCsaYBQcqFXcu4_8nve_core8services8resolverINtB2_14ResolveServiceNtCsjM8Q6BkuJGm_22installer_service_test10FakeHttpOkE7resolveB19_
FNDA:1,_RNvMNtNtCsaYBQcqFXcu4_8nve_core8services8resolverINtB2_14ResolveServiceNtCsjM8Q6BkuJGm_22installer_service_test11FakeHttpErrE7resolveB19_
FNDA:2,_RNCNCNvMNtNtCsaYBQcqFXcu4_8nve_core8services8resolverINtB6_14ResolveServiceNtCseOi3vX16Wlp_8lib_test10FakeHttpOkE7resolve00B1d_
FNDA:0,_RNCNCNvMNtNtCsaYBQcqFXcu4_8nve_core8services8resolverINtB6_14ResolveServiceNtCseOi3vX16Wlp_8lib_test10FakeHttpOkE7resolve0s0_0B1d_
FNDA:2,_RNCNCNvMNtNtCsaYBQcqFXcu4_8nve_core8services8resolverINtB6_14ResolveServiceNtCseOi3vX16Wlp_8lib_test10FakeHttpOkE7resolve0s_0B1d_
FNDA:0,_RNCNCNvMNtNtCsaYBQcqFXcu4_8nve_core8services8resolverINtB6_14ResolveServiceNtCseOi3vX16Wlp_8lib_test11FakeHttpErrE7resolve00B1d_
FNDA:0,_RNCNCNvMNtNtCsaYBQcqFXcu4_8nve_core8services8resolverINtB6_14ResolveServiceNtCseOi3vX16Wlp_8lib_test11FakeHttpErrE7resolve0s0_0B1d_
FNDA:0,_RNCNCNvMNtNtCsaYBQcqFXcu4_8nve_core8services8resolverINtB6_14ResolveServiceNtCseOi3vX16Wlp_8lib_test11FakeHttpErrE7resolve0s_0B1d_
FNDA:2,_RNCNvMNtNtCsaYBQcqFXcu4_8nve_core8services8resolverINtB4_14ResolveServiceNtCseOi3vX16Wlp_8lib_test10FakeHttpOkE7resolve0B1b_
FNDA:1,_RNCNvMNtNtCsaYBQcqFXcu4_8nve_core8services8resolverINtB4_14ResolveServiceNtCseOi3vX16Wlp_8lib_test11FakeHttpErrE7resolve0B1b_
FNDA:2,_RNvMNtNtCsaYBQcqFXcu4_8nve_core8services8resolverINtB2_14ResolveServiceNtCseOi3vX16Wlp_8lib_test10FakeHttpOkE7resolveB19_
FNDA:1,_RNvMNtNtCsaYBQcqFXcu4_8nve_core8services8resolverINtB2_14ResolveServiceNtCseOi3vX16Wlp_8lib_test11FakeHttpErrE7resolveB19_
FNDA:0,_RNCNCNvMNtNtCsaYBQcqFXcu4_8nve_core8services8resolverINtB6_14ResolveServiceNtNtCsdoXv3OBzBMS_9nve_infra11http_client11ReqwestHttpE7resolve00Csb32HfRwuVU2_7nve_cli
FNDA:0,_RNCNCNvMNtNtCsaYBQcqFXcu4_8nve_core8services8resolverINtB6_14ResolveServiceNtNtCsdoXv3OBzBMS_9nve_infra11http_client11ReqwestHttpE7resolve0s0_0Csb32HfRwuVU2_7nve_cli
FNDA:0,_RNCNCNvMNtNtCsaYBQcqFXcu4_8nve_core8services8resolverINtB6_14ResolveServiceNtNtCsdoXv3OBzBMS_9nve_infra11http_client11ReqwestHttpE7resolve0s_0Csb32HfRwuVU2_7nve_cli
FNDA:0,_RNCNvMNtNtCsaYBQcqFXcu4_8nve_core8services8resolverINtB4_14ResolveServiceNtNtCsdoXv3OBzBMS_9nve_infra11http_client11ReqwestHttpE7resolve0Csb32HfRwuVU2_7nve_cli
FNDA:0,_RNvMNtNtCsaYBQcqFXcu4_8nve_core8services8resolverINtB2_14ResolveServiceNtNtCsdoXv3OBzBMS_9nve_infra11http_client11ReqwestHttpE7resolveCsb32HfRwuVU2_7nve_cli
FNDA:0,_RNCNCNvMNtNtCsh2jtGRHkI8o_8nve_core8services8resolverINtB6_14ResolveServicepE7resolve00Ba_
FNDA:0,_RNCNCNvMNtNtCsh2jtGRHkI8o_8nve_core8services8resolverINtB6_14ResolveServicepE7resolve0s0_0Ba_
FNDA:0,_RNCNCNvMNtNtCsh2jtGRHkI8o_8nve_core8services8resolverINtB6_14ResolveServicepE7resolve0s_0Ba_
FNDA:0,_RNCNvMNtNtCsh2jtGRHkI8o_8nve_core8services8resolverINtB4_14ResolveServicepE7resolve0B8_
FNDA:0,_RNvMNtNtCsh2jtGRHkI8o_8nve_core8services8resolverINtB2_14ResolveServicepE7resolveB6_
FNDA:1,_RNCNCNvMNtNtCsaYBQcqFXcu4_8nve_core8services8resolverINtB6_14ResolveServiceNtCskYBRmLZdGY1_13resolver_test8FakeHttpE7resolve00B1d_
FNDA:0,_RNCNCNvMNtNtCsaYBQcqFXcu4_8nve_core8services8resolverINtB6_14ResolveServiceNtCskYBRmLZdGY1_13resolver_test8FakeHttpE7resolve0s0_0B1d_
FNDA:1,_RNCNCNvMNtNtCsaYBQcqFXcu4_8nve_core8services8resolverINtB6_14ResolveServiceNtCskYBRmLZdGY1_13resolver_test8FakeHttpE7resolve0s_0B1d_
FNDA:1,_RNCNvMNtNtCsaYBQcqFXcu4_8nve_core8services8resolverINtB4_14ResolveServiceNtCskYBRmLZdGY1_13resolver_test8FakeHttpE7resolve0B1b_
FNDA:1,_RNvMNtNtCsaYBQcqFXcu4_8nve_core8services8resolverINtB2_14ResolveServiceNtCskYBRmLZdGY1_13resolver_test8FakeHttpE7resolveB19_
FNF:5
FNH:4
DA:12,8
DA:13,8
DA:15,6
DA:16,6
DA:17,9
DA:18,9
DA:19,6
DA:20,8
BRF:0
BRH:0
LF:12
LH:11
end_of_record
SF:/Users/jgalaber/ws/nve-rust-cli/crates/core/src/state/layout.rs
FN:13,_RNvMNtNtCsaYBQcqFXcu4_8nve_core5state6layoutNtB2_9NveLayout11current_dir
FN:16,_RNvMNtNtCsaYBQcqFXcu4_8nve_core5state6layoutNtB2_9NveLayout11version_dir
FN:10,_RNvMNtNtCsaYBQcqFXcu4_8nve_core5state6layoutNtB2_9NveLayout12versions_dir
FN:13,_RNvMNtNtCsh2jtGRHkI8o_8nve_core5state6layoutNtB2_9NveLayout11current_dir
FN:16,_RNvMNtNtCsh2jtGRHkI8o_8nve_core5state6layoutNtB2_9NveLayout11version_dir
FN:10,_RNvMNtNtCsh2jtGRHkI8o_8nve_core5state6layoutNtB2_9NveLayout12versions_dir
FNDA:13,_RNvMNtNtCsaYBQcqFXcu4_8nve_core5state6layoutNtB2_9NveLayout11current_dir
FNDA:16,_RNvMNtNtCsaYBQcqFXcu4_8nve_core5state6layoutNtB2_9NveLayout11version_dir
FNDA:38,_RNvMNtNtCsaYBQcqFXcu4_8nve_core5state6layoutNtB2_9NveLayout12versions_dir
FNDA:0,_RNvMNtNtCsh2jtGRHkI8o_8nve_core5state6layoutNtB2_9NveLayout11current_dir
FNDA:0,_RNvMNtNtCsh2jtGRHkI8o_8nve_core5state6layoutNtB2_9NveLayout11version_dir
FNDA:0,_RNvMNtNtCsh2jtGRHkI8o_8nve_core5state6layoutNtB2_9NveLayout12versions_dir
FNF:3
FNH:3
DA:10,38
DA:11,38
DA:12,38
DA:13,13
DA:14,13
DA:15,13
DA:16,16
DA:17,16
DA:18,16
BRF:0
BRH:0
LF:9
LH:9
end_of_record
SF:/Users/jgalaber/ws/nve-rust-cli/crates/infra/src/archive/tar_xz.rs
FN:33,_RNCNCNvXs_NtNtCsdoXv3OBzBMS_9nve_infra7archive6tar_xzNtB8_12TarXzArchiveNtNtNtCsaYBQcqFXcu4_8nve_core5ports7archive7Archive7extract00Bc_
FN:13,_RNvMNtNtCsdoXv3OBzBMS_9nve_infra7archive6tar_xzNtB2_12TarXzArchive3new
FN:25,_RNvXs_NtNtCsdoXv3OBzBMS_9nve_infra7archive6tar_xzNtB4_12TarXzArchiveNtNtNtCsaYBQcqFXcu4_8nve_core5ports7archive7Archive7extract
FN:33,_RNCNCNvXs_NtNtCs7oM0R9vCeIF_9nve_infra7archive6tar_xzNtB8_12TarXzArchiveNtNtNtCsaYBQcqFXcu4_8nve_core5ports7archive7Archive7extract00Bc_
FN:13,_RNvMNtNtCs7oM0R9vCeIF_9nve_infra7archive6tar_xzNtB2_12TarXzArchive3new
FN:25,_RNvXs_NtNtCs7oM0R9vCeIF_9nve_infra7archive6tar_xzNtB4_12TarXzArchiveNtNtNtCsaYBQcqFXcu4_8nve_core5ports7archive7Archive7extract
FNDA:1,_RNCNCNvXs_NtNtCsdoXv3OBzBMS_9nve_infra7archive6tar_xzNtB8_12TarXzArchiveNtNtNtCsaYBQcqFXcu4_8nve_core5ports7archive7Archive7extract00Bc_
FNDA:7,_RNvMNtNtCsdoXv3OBzBMS_9nve_infra7archive6tar_xzNtB2_12TarXzArchive3new
FNDA:3,_RNvXs_NtNtCsdoXv3OBzBMS_9nve_infra7archive6tar_xzNtB4_12TarXzArchiveNtNtNtCsaYBQcqFXcu4_8nve_core5ports7archive7Archive7extract
FNDA:0,_RNCNCNvXs_NtNtCs7oM0R9vCeIF_9nve_infra7archive6tar_xzNtB8_12TarXzArchiveNtNtNtCsaYBQcqFXcu4_8nve_core5ports7archive7Archive7extract00Bc_
FNDA:0,_RNvMNtNtCs7oM0R9vCeIF_9nve_infra7archive6tar_xzNtB2_12TarXzArchive3new
FNDA:0,_RNvXs_NtNtCs7oM0R9vCeIF_9nve_infra7archive6tar_xzNtB4_12TarXzArchiveNtNtNtCsaYBQcqFXcu4_8nve_core5ports7archive7Archive7extract
FNF:3
FNH:3
DA:13,7
DA:14,7
DA:15,7
DA:25,3
DA:33,1
DA:42,3
BRF:0
BRH:0
LF:6
LH:6
end_of_record
SF:/Users/jgalaber/ws/nve-rust-cli/crates/infra/src/archive/zip.rs
FN:29,_RNCNCNvXs_NtNtCsdoXv3OBzBMS_9nve_infra7archive3zipNtB8_10ZipArchiveNtNtNtCsaYBQcqFXcu4_8nve_core5ports7archive7Archive7extract00Bc_
FN:36,_RNCNCNvXs_NtNtCsdoXv3OBzBMS_9nve_infra7archive3zipNtB8_10ZipArchiveNtNtNtCsaYBQcqFXcu4_8nve_core5ports7archive7Archive7extract0s_0Bc_
FN:12,_RNvMNtNtCsdoXv3OBzBMS_9nve_infra7archive3zipNtB2_10ZipArchive3new
FN:24,_RNvXs_NtNtCsdoXv3OBzBMS_9nve_infra7archive3zipNtB4_10ZipArchiveNtNtNtCsaYBQcqFXcu4_8nve_core5ports7archive7Archive7extract
FN:29,_RNCNCNvXs_NtNtCs7oM0R9vCeIF_9nve_infra7archive3zipNtB8_10ZipArchiveNtNtNtCsaYBQcqFXcu4_8nve_core5ports7archive7Archive7extract00Bc_
FN:36,_RNCNCNvXs_NtNtCs7oM0R9vCeIF_9nve_infra7archive3zipNtB8_10ZipArchiveNtNtNtCsaYBQcqFXcu4_8nve_core5ports7archive7Archive7extract0s_0Bc_
FN:12,_RNvMNtNtCs7oM0R9vCeIF_9nve_infra7archive3zipNtB2_10ZipArchive3new
FN:24,_RNvXs_NtNtCs7oM0R9vCeIF_9nve_infra7archive3zipNtB4_10ZipArchiveNtNtNtCsaYBQcqFXcu4_8nve_core5ports7archive7Archive7extract
FNDA:1,_RNCNCNvXs_NtNtCsdoXv3OBzBMS_9nve_infra7archive3zipNtB8_10ZipArchiveNtNtNtCsaYBQcqFXcu4_8nve_core5ports7archive7Archive7extract00Bc_
FNDA:0,_RNCNCNvXs_NtNtCsdoXv3OBzBMS_9nve_infra7archive3zipNtB8_10ZipArchiveNtNtNtCsaYBQcqFXcu4_8nve_core5ports7archive7Archive7extract0s_0Bc_
FNDA:7,_RNvMNtNtCsdoXv3OBzBMS_9nve_infra7archive3zipNtB2_10ZipArchive3new
FNDA:7,_RNvXs_NtNtCsdoXv3OBzBMS_9nve_infra7archive3zipNtB4_10ZipArchiveNtNtNtCsaYBQcqFXcu4_8nve_core5ports7archive7Archive7extract
FNDA:0,_RNCNCNvXs_NtNtCs7oM0R9vCeIF_9nve_infra7archive3zipNtB8_10ZipArchiveNtNtNtCsaYBQcqFXcu4_8nve_core5ports7archive7Archive7extract00Bc_
FNDA:0,_RNCNCNvXs_NtNtCs7oM0R9vCeIF_9nve_infra7archive3zipNtB8_10ZipArchiveNtNtNtCsaYBQcqFXcu4_8nve_core5ports7archive7Archive7extract0s_0Bc_
FNDA:0,_RNvMNtNtCs7oM0R9vCeIF_9nve_infra7archive3zipNtB2_10ZipArchive3new
FNDA:0,_RNvXs_NtNtCs7oM0R9vCeIF_9nve_infra7archive3zipNtB4_10ZipArchiveNtNtNtCsaYBQcqFXcu4_8nve_core5ports7archive7Archive7extract
FNF:4
FNH:3
DA:12,7
DA:13,7
DA:14,7
DA:24,7
DA:29,1
DA:36,0
DA:64,7
BRF:0
BRH:0
LF:7
LH:6
end_of_record
SF:/Users/jgalaber/ws/nve-rust-cli/crates/infra/src/fs_std.rs
FN:61,_RNCNvXs0_NtCsdoXv3OBzBMS_9nve_infra6fs_stdNtB7_5StdFsNtNtNtCsaYBQcqFXcu4_8nve_core5ports2fs10FileSystem18copy_dir_recursive0B9_
FN:9,_RNvMNtCsdoXv3OBzBMS_9nve_infra6fs_stdNtB2_5StdFs3new
FN:21,_RNvXs0_NtCsdoXv3OBzBMS_9nve_infra6fs_stdNtB5_5StdFsNtNtNtCsaYBQcqFXcu4_8nve_core5ports2fs10FileSystem14create_dir_all
FN:34,_RNvXs0_NtCsdoXv3OBzBMS_9nve_infra6fs_stdNtB5_5StdFsNtNtNtCsaYBQcqFXcu4_8nve_core5ports2fs10FileSystem14read_dir_names
FN:25,_RNvXs0_NtCsdoXv3OBzBMS_9nve_infra6fs_stdNtB5_5StdFsNtNtNtCsaYBQcqFXcu4_8nve_core5ports2fs10FileSystem14remove_dir_all
FN:54,_RNvXs0_NtCsdoXv3OBzBMS_9nve_infra6fs_stdNtB5_5StdFsNtNtNtCsaYBQcqFXcu4_8nve_core5ports2fs10FileSystem18copy_dir_recursive
FN:50,_RNvXs0_NtCsdoXv3OBzBMS_9nve_infra6fs_stdNtB5_5StdFsNtNtNtCsaYBQcqFXcu4_8nve_core5ports2fs10FileSystem6exists
FN:15,_RNvXs_NtCsdoXv3OBzBMS_9nve_infra6fs_stdNtB4_5StdFsNtNtCsaNl6UpbT7bw_4core7default7Default7default
FN:61,_RNCNvXs0_NtCs7oM0R9vCeIF_9nve_infra6fs_stdNtB7_5StdFsNtNtNtCsaYBQcqFXcu4_8nve_core5ports2fs10FileSystem18copy_dir_recursive0B9_
FN:9,_RNvMNtCs7oM0R9vCeIF_9nve_infra6fs_stdNtB2_5StdFs3new
FN:21,_RNvXs0_NtCs7oM0R9vCeIF_9nve_infra6fs_stdNtB5_5StdFsNtNtNtCsaYBQcqFXcu4_8nve_core5ports2fs10FileSystem14create_dir_all
FN:34,_RNvXs0_NtCs7oM0R9vCeIF_9nve_infra6fs_stdNtB5_5StdFsNtNtNtCsaYBQcqFXcu4_8nve_core5ports2fs10FileSystem14read_dir_names
FN:25,_RNvXs0_NtCs7oM0R9vCeIF_9nve_infra6fs_stdNtB5_5StdFsNtNtNtCsaYBQcqFXcu4_8nve_core5ports2fs10FileSystem14remove_dir_all
FN:54,_RNvXs0_NtCs7oM0R9vCeIF_9nve_infra6fs_stdNtB5_5StdFsNtNtNtCsaYBQcqFXcu4_8nve_core5ports2fs10FileSystem18copy_dir_recursive
FN:50,_RNvXs0_NtCs7oM0R9vCeIF_9nve_infra6fs_stdNtB5_5StdFsNtNtNtCsaYBQcqFXcu4_8nve_core5ports2fs10FileSystem6exists
FN:15,_RNvXs_NtCs7oM0R9vCeIF_9nve_infra6fs_stdNtB4_5StdFsNtNtCsaNl6UpbT7bw_4core7default7Default7default
FNDA:1,_RNCNvXs0_NtCsdoXv3OBzBMS_9nve_infra6fs_stdNtB7_5StdFsNtNtNtCsaYBQcqFXcu4_8nve_core5ports2fs10FileSystem18copy_dir_recursive0B9_
FNDA:12,_RNvMNtCsdoXv3OBzBMS_9nve_infra6fs_stdNtB2_5StdFs3new
FNDA:5,_RNvXs0_NtCsdoXv3OBzBMS_9nve_infra6fs_stdNtB5_5StdFsNtNtNtCsaYBQcqFXcu4_8nve_core5ports2fs10FileSystem14create_dir_all
FNDA:6,_RNvXs0_NtCsdoXv3OBzBMS_9nve_infra6fs_stdNtB5_5StdFsNtNtNtCsaYBQcqFXcu4_8nve_core5ports2fs10FileSystem14read_dir_names
FNDA:4,_RNvXs0_NtCsdoXv3OBzBMS_9nve_infra6fs_stdNtB5_5StdFsNtNtNtCsaYBQcqFXcu4_8nve_core5ports2fs10FileSystem14remove_dir_all
FNDA:3,_RNvXs0_NtCsdoXv3OBzBMS_9nve_infra6fs_stdNtB5_5StdFsNtNtNtCsaYBQcqFXcu4_8nve_core5ports2fs10FileSystem18copy_dir_recursive
FNDA:8,_RNvXs0_NtCsdoXv3OBzBMS_9nve_infra6fs_stdNtB5_5StdFsNtNtNtCsaYBQcqFXcu4_8nve_core5ports2fs10FileSystem6exists
FNDA:0,_RNvXs_NtCsdoXv3OBzBMS_9nve_infra6fs_stdNtB4_5StdFsNtNtCsaNl6UpbT7bw_4core7default7Default7default
FNDA:0,_RNCNvXs0_NtCs7oM0R9vCeIF_9nve_infra6fs_stdNtB7_5StdFsNtNtNtCsaYBQcqFXcu4_8nve_core5ports2fs10FileSystem18copy_dir_recursive0B9_
FNDA:0,_RNvMNtCs7oM0R9vCeIF_9nve_infra6fs_stdNtB2_5StdFs3new
FNDA:0,_RNvXs0_NtCs7oM0R9vCeIF_9nve_infra6fs_stdNtB5_5StdFsNtNtNtCsaYBQcqFXcu4_8nve_core5ports2fs10FileSystem14create_dir_all
FNDA:0,_RNvXs0_NtCs7oM0R9vCeIF_9nve_infra6fs_stdNtB5_5StdFsNtNtNtCsaYBQcqFXcu4_8nve_core5ports2fs10FileSystem14read_dir_names
FNDA:0,_RNvXs0_NtCs7oM0R9vCeIF_9nve_infra6fs_stdNtB5_5StdFsNtNtNtCsaYBQcqFXcu4_8nve_core5ports2fs10FileSystem14remove_dir_all
FNDA:0,_RNvXs0_NtCs7oM0R9vCeIF_9nve_infra6fs_stdNtB5_5StdFsNtNtNtCsaYBQcqFXcu4_8nve_core5ports2fs10FileSystem18copy_dir_recursive
FNDA:0,_RNvXs0_NtCs7oM0R9vCeIF_9nve_infra6fs_stdNtB5_5StdFsNtNtNtCsaYBQcqFXcu4_8nve_core5ports2fs10FileSystem6exists
FNDA:0,_RNvXs_NtCs7oM0R9vCeIF_9nve_infra6fs_stdNtB4_5StdFsNtNtCsaNl6UpbT7bw_4core7default7Default7default
FNF:8
FNH:7
DA:9,12
DA:10,12
DA:11,12
DA:15,0
DA:16,0
DA:17,0
DA:21,5
DA:22,5
DA:23,5
DA:25,4
DA:27,4
DA:28,3
DA:30,1
DA:32,4
DA:34,6
DA:35,6
DA:36,6
DA:37,1
DA:38,5
DA:39,12
DA:40,12
DA:41,12
DA:42,10
DA:43,10
DA:44,10
DA:45,2
DA:47,5
DA:48,6
DA:50,8
DA:51,8
DA:52,8
DA:54,3
DA:56,3
DA:57,2
DA:58,1
DA:59,3
DA:60,13
DA:61,13
DA:62,12
DA:63,12
DA:64,12
DA:65,6
DA:67,6
DA:68,6
DA:69,0
DA:70,6
DA:73,2
DA:74,3
BRF:0
BRH:0
LF:49
LH:45
end_of_record
SF:/Users/jgalaber/ws/nve-rust-cli/crates/infra/src/http_client.rs
FN:21,_RINvXs_NtCsdoXv3OBzBMS_9nve_infra11http_clientNtB5_11ReqwestHttpNtNtNtCsaYBQcqFXcu4_8nve_core5ports4http10HttpClient8get_jsonNtCs5EAbf534gVR_16http_client_test3FooEB21_
FN:9,_RNvXNtCsdoXv3OBzBMS_9nve_infra11http_clientNtB2_11ReqwestHttpNtNtCsaNl6UpbT7bw_4core7default7Default7default
FN:16,_RNvXs_NtCsdoXv3OBzBMS_9nve_infra11http_clientNtB4_11ReqwestHttpNtNtNtCsaYBQcqFXcu4_8nve_core5ports4http10HttpClient9get_bytes
FN:21,_RINvXs_NtCsdoXv3OBzBMS_9nve_infra11http_clientNtB5_11ReqwestHttpNtNtNtCsaYBQcqFXcu4_8nve_core5ports4http10HttpClient8get_jsonINtNtCsiTraAjBDcu4_5alloc3vec3VecNtNtNtB16_6domain7release11NodeReleaseEECsb32HfRwuVU2_7nve_cli
FN:21,_RINvXs_NtCs7oM0R9vCeIF_9nve_infra11http_clientNtB5_11ReqwestHttpNtNtNtCsaYBQcqFXcu4_8nve_core5ports4http10HttpClient8get_jsonpEB7_
FN:9,_RNvXNtCs7oM0R9vCeIF_9nve_infra11http_clientNtB2_11ReqwestHttpNtNtCsaNl6UpbT7bw_4core7default7Default7default
FN:16,_RNvXs_NtCs7oM0R9vCeIF_9nve_infra11http_clientNtB4_11ReqwestHttpNtNtNtCsaYBQcqFXcu4_8nve_core5ports4http10HttpClient9get_bytes
FNDA:3,_RINvXs_NtCsdoXv3OBzBMS_9nve_infra11http_clientNtB5_11ReqwestHttpNtNtNtCsaYBQcqFXcu4_8nve_core5ports4http10HttpClient8get_jsonNtCs5EAbf534gVR_16http_client_test3FooEB21_
FNDA:9,_RNvXNtCsdoXv3OBzBMS_9nve_infra11http_clientNtB2_11ReqwestHttpNtNtCsaNl6UpbT7bw_4core7default7Default7default
FNDA:2,_RNvXs_NtCsdoXv3OBzBMS_9nve_infra11http_clientNtB4_11ReqwestHttpNtNtNtCsaYBQcqFXcu4_8nve_core5ports4http10HttpClient9get_bytes
FNDA:0,_RINvXs_NtCsdoXv3OBzBMS_9nve_infra11http_clientNtB5_11ReqwestHttpNtNtNtCsaYBQcqFXcu4_8nve_core5ports4http10HttpClient8get_jsonINtNtCsiTraAjBDcu4_5alloc3vec3VecNtNtNtB16_6domain7release11NodeReleaseEECsb32HfRwuVU2_7nve_cli
FNDA:0,_RINvXs_NtCs7oM0R9vCeIF_9nve_infra11http_clientNtB5_11ReqwestHttpNtNtNtCsaYBQcqFXcu4_8nve_core5ports4http10HttpClient8get_jsonpEB7_
FNDA:0,_RNvXNtCs7oM0R9vCeIF_9nve_infra11http_clientNtB2_11ReqwestHttpNtNtCsaNl6UpbT7bw_4core7default7Default7default
FNDA:0,_RNvXs_NtCs7oM0R9vCeIF_9nve_infra11http_clientNtB4_11ReqwestHttpNtNtNtCsaYBQcqFXcu4_8nve_core5ports4http10HttpClient9get_bytes
FNF:3
FNH:3
DA:9,9
DA:10,9
DA:11,9
DA:16,2
DA:19,2
DA:21,3
DA:24,3
BRF:0
BRH:0
LF:7
LH:7
end_of_record
SF:/Users/jgalaber/ws/nve-rust-cli/crates/infra/src/platform/unix.rs
FN:11,_RNvMNtNtCsdoXv3OBzBMS_9nve_infra8platform4unixNtB2_12UnixPlatform3new
FN:51,_RNvXs_NtNtCsdoXv3OBzBMS_9nve_infra8platform4unixNtB4_12UnixPlatformNtNtNtCsaYBQcqFXcu4_8nve_core5ports8platform8Platform10is_current
FN:42,_RNvXs_NtNtCsdoXv3OBzBMS_9nve_infra8platform4unixNtB4_12UnixPlatformNtNtNtCsaYBQcqFXcu4_8nve_core5ports8platform8Platform11set_current
FN:37,_RNvXs_NtNtCsdoXv3OBzBMS_9nve_infra8platform4unixNtB4_12UnixPlatformNtNtNtCsaYBQcqFXcu4_8nve_core5ports8platform8Platform12archive_name
FN:18,_RNvXs_NtNtCsdoXv3OBzBMS_9nve_infra8platform4unixNtB4_12UnixPlatformNtNtNtCsaYBQcqFXcu4_8nve_core5ports8platform8Platform7os_arch
FN:11,_RNvMNtNtCs7oM0R9vCeIF_9nve_infra8platform4unixNtB2_12UnixPlatform3new
FN:51,_RNvXs_NtNtCs7oM0R9vCeIF_9nve_infra8platform4unixNtB4_12UnixPlatformNtNtNtCsaYBQcqFXcu4_8nve_core5ports8platform8Platform10is_current
FN:42,_RNvXs_NtNtCs7oM0R9vCeIF_9nve_infra8platform4unixNtB4_12UnixPlatformNtNtNtCsaYBQcqFXcu4_8nve_core5ports8platform8Platform11set_current
FN:37,_RNvXs_NtNtCs7oM0R9vCeIF_9nve_infra8platform4unixNtB4_12UnixPlatformNtNtNtCsaYBQcqFXcu4_8nve_core5ports8platform8Platform12archive_name
FN:18,_RNvXs_NtNtCs7oM0R9vCeIF_9nve_infra8platform4unixNtB4_12UnixPlatformNtNtNtCsaYBQcqFXcu4_8nve_core5ports8platform8Platform7os_arch
FNDA:9,_RNvMNtNtCsdoXv3OBzBMS_9nve_infra8platform4unixNtB2_12UnixPlatform3new
FNDA:7,_RNvXs_NtNtCsdoXv3OBzBMS_9nve_infra8platform4unixNtB4_12UnixPlatformNtNtNtCsaYBQcqFXcu4_8nve_core5ports8platform8Platform10is_current
FNDA:4,_RNvXs_NtNtCsdoXv3OBzBMS_9nve_infra8platform4unixNtB4_12UnixPlatformNtNtNtCsaYBQcqFXcu4_8nve_core5ports8platform8Platform11set_current
FNDA:1,_RNvXs_NtNtCsdoXv3OBzBMS_9nve_infra8platform4unixNtB4_12UnixPlatformNtNtNtCsaYBQcqFXcu4_8nve_core5ports8platform8Platform12archive_name
FNDA:3,_RNvXs_NtNtCsdoXv3OBzBMS_9nve_infra8platform4unixNtB4_12UnixPlatformNtNtNtCsaYBQcqFXcu4_8nve_core5ports8platform8Platform7os_arch
FNDA:0,_RNvMNtNtCs7oM0R9vCeIF_9nve_infra8platform4unixNtB2_12UnixPlatform3new
FNDA:0,_RNvXs_NtNtCs7oM0R9vCeIF_9nve_infra8platform4unixNtB4_12UnixPlatformNtNtNtCsaYBQcqFXcu4_8nve_core5ports8platform8Platform10is_current
FNDA:0,_RNvXs_NtNtCs7oM0R9vCeIF_9nve_infra8platform4unixNtB4_12UnixPlatformNtNtNtCsaYBQcqFXcu4_8nve_core5ports8platform8Platform11set_current
FNDA:0,_RNvXs_NtNtCs7oM0R9vCeIF_9nve_infra8platform4unixNtB4_12UnixPlatformNtNtNtCsaYBQcqFXcu4_8nve_core5ports8platform8Platform12archive_name
FNDA:0,_RNvXs_NtNtCs7oM0R9vCeIF_9nve_infra8platform4unixNtB4_12UnixPlatformNtNtNtCsaYBQcqFXcu4_8nve_core5ports8platform8Platform7os_arch
FNF:5
FNH:5
DA:11,9
DA:12,9
DA:13,9
DA:18,3
DA:20,3
DA:21,3
DA:23,0
DA:25,3
DA:26,3
DA:27,0
DA:28,3
DA:29,3
DA:31,0
DA:33,3
DA:34,3
DA:35,3
DA:37,1
DA:38,1
DA:39,1
DA:40,1
DA:42,4
DA:49,4
DA:51,7
DA:57,7
BRF:0
BRH:0
LF:24
LH:21
end_of_record